target datalayout = "e-m:e-p270:32:32-p271:32:32-p272:64:64-i64:64-i128:128-f80:128-n8:16:32:64-S128"
target triple = "x86_64-pc-linux-gnu"

; Function Attrs: nounwind uwtable
define internal zeroext i1 @is_an_int(ptr noundef %0) #0 {
  %2 = alloca i1, align 1
  %3 = alloca ptr, align 8
  %4 = alloca ptr, align 8
  %5 = alloca i32, align 4
  store ptr %0, ptr %3, align 8
  call void @llvm.lifetime.start.p0(i64 8, ptr %4) #14
  %6 = load ptr, ptr %3, align 8
  store ptr %6, ptr %4, align 8
  br label %7

7:                                                ; preds = %26, %1
  %8 = load ptr, ptr %4, align 8
  %9 = load i8, ptr %8, align 1
  %10 = sext i8 %9 to i32
  %11 = icmp ne i32 %10, 0
  br i1 %11, label %12, label %24

12:                                               ; preds = %7
  %13 = call ptr @__ctype_b_loc() #15
  %14 = load ptr, ptr %13, align 8
  %15 = load ptr, ptr %4, align 8
  %16 = load i8, ptr %15, align 1
  %17 = zext i8 %16 to i32
  %18 = sext i32 %17 to i64
  %19 = getelementptr inbounds i16, ptr %14, i64 %18
  %20 = load i16, ptr %19, align 2
  %21 = zext i16 %20 to i32
  %22 = and i32 %21, 8192
  %23 = icmp ne i32 %22, 0
  br label %24

24:                                               ; preds = %12, %7
  %25 = phi i1 [ false, %7 ], [ %23, %12 ]
  br i1 %25, label %26, label %29

26:                                               ; preds = %24
  %27 = load ptr, ptr %4, align 8
  %28 = getelementptr inbounds nuw i8, ptr %27, i32 1
  store ptr %28, ptr %4, align 8
  br label %7, !llvm.loop !70

29:                                               ; preds = %24
  %30 = load ptr, ptr %4, align 8
  %31 = load i8, ptr %30, align 1
  %32 = sext i8 %31 to i32
  %33 = icmp eq i32 %32, 43
  br i1 %33, label %39, label %34

34:                                               ; preds = %29
  %35 = load ptr, ptr %4, align 8
  %36 = load i8, ptr %35, align 1
  %37 = sext i8 %36 to i32
  %38 = icmp eq i32 %37, 45
  br i1 %38, label %39, label %42

39:                                               ; preds = %34, %29
  %40 = load ptr, ptr %4, align 8
  %41 = getelementptr inbounds nuw i8, ptr %40, i32 1
  store ptr %41, ptr %4, align 8
  br label %42

42:                                               ; preds = %39, %34
  %43 = load ptr, ptr %4, align 8
  %44 = load i8, ptr %43, align 1
  %45 = sext i8 %44 to i32
  %46 = icmp ne i32 %45, 0
  br i1 %46, label %47, label %60

47:                                               ; preds = %42
  %48 = call ptr @__ctype_b_loc() #15
  %49 = load ptr, ptr %48, align 8
  %50 = load ptr, ptr %4, align 8
  %51 = load i8, ptr %50, align 1
  %52 = zext i8 %51 to i32
  %53 = sext i32 %52 to i64
  %54 = getelementptr inbounds i16, ptr %49, i64 %53
  %55 = load i16, ptr %54, align 2
  %56 = zext i16 %55 to i32
  %57 = and i32 %56, 2048
  %58 = icmp ne i32 %57, 0
  br i1 %58, label %60, label %59

59:                                               ; preds = %47
  store i1 false, ptr %2, align 1
  store i32 1, ptr %5, align 4
  br label %88

60:                                               ; preds = %47, %42
  br label %61

61:                                               ; preds = %80, %60
  %62 = load ptr, ptr %4, align 8
  %63 = load i8, ptr %62, align 1
  %64 = sext i8 %63 to i32
  %65 = icmp ne i32 %64, 0
  br i1 %65, label %66, label %78

66:                                               ; preds = %61
  %67 = call ptr @__ctype_b_loc() #15
  %68 = load ptr, ptr %67, align 8
  %69 = load ptr, ptr %4, align 8
  %70 = load i8, ptr %69, align 1
  %71 = zext i8 %70 to i32
  %72 = sext i32 %71 to i64
  %73 = getelementptr inbounds i16, ptr %68, i64 %72
  %74 = load i16, ptr %73, align 2
  %75 = zext i16 %74 to i32
  %76 = and i32 %75, 2048
  %77 = icmp ne i32 %76, 0
  br label %78

78:                                               ; preds = %66, %61
  %79 = phi i1 [ false, %61 ], [ %77, %66 ]
  br i1 %79, label %80, label %83

80:                                               ; preds = %78
  %81 = load ptr, ptr %4, align 8
  %82 = getelementptr inbounds nuw i8, ptr %81, i32 1
  store ptr %82, ptr %4, align 8
  br label %61, !llvm.loop !71

83:                                               ; preds = %78
  %84 = load ptr, ptr %4, align 8
  %85 = load i8, ptr %84, align 1
  %86 = sext i8 %85 to i32
  %87 = icmp eq i32 %86, 0
  store i1 %87, ptr %2, align 1
  store i32 1, ptr %5, align 4
  br label %88

88:                                               ; preds = %83, %59
  call void @llvm.lifetime.end.p0(i64 8, ptr %4) #14
  %89 = load i1, ptr %2, align 1
  ret i1 %89
}