; Function Attrs: nofree nosync nounwind memory(read, inaccessiblemem: none) uwtable
define internal fastcc noundef zeroext i1 @is_an_int(ptr noundef readonly captures(none) %0) unnamed_addr #20 {
  %2 = load i8, ptr %0, align 1
  %.not28 = icmp eq i8 %2, 0
  br i1 %.not28, label %.critedge2, label %.lr.ph

.lr.ph:                                           ; preds = %1
  %3 = tail call ptr @__ctype_b_loc() #24
  %4 = load ptr, ptr %3, align 8
  br label %5

5:                                                ; preds = %.lr.ph, %11
  %6 = phi i8 [ %2, %.lr.ph ], [ %13, %11 ]
  %.029 = phi ptr [ %0, %.lr.ph ], [ %12, %11 ]
  %7 = zext i8 %6 to i64
  %8 = getelementptr inbounds nuw i16, ptr %4, i64 %7
  %9 = load i16, ptr %8, align 2
  %10 = and i16 %9, 8192
  %.not18 = icmp eq i16 %10, 0
  br i1 %.not18, label %.critedge, label %11

11:                                               ; preds = %5
  %12 = getelementptr inbounds nuw i8, ptr %.029, i64 1
  %13 = load i8, ptr %12, align 1
  %.not = icmp eq i8 %13, 0
  br i1 %.not, label %.critedge2, label %5, !llvm.loop !77

.critedge:                                        ; preds = %5
  switch i8 %6, label %.thread40 [
    i8 43, label %14
    i8 45, label %14
  ]

14:                                               ; preds = %.critedge, %.critedge
  %15 = getelementptr inbounds nuw i8, ptr %.029, i64 1
  %.pr.pre = load i8, ptr %15, align 1
  %.not19 = icmp eq i8 %.pr.pre, 0
  br i1 %.not19, label %.critedge2, label %.thread40

.thread40:                                        ; preds = %.critedge, %14
  %.1.ph45 = phi ptr [ %15, %14 ], [ %.029, %.critedge ]
  %.pr44 = phi i8 [ %.pr.pre, %14 ], [ %6, %.critedge ]
  %16 = zext i8 %.pr44 to i64
  %17 = getelementptr inbounds nuw i16, ptr %4, i64 %16
  %18 = load i16, ptr %17, align 2
  %19 = and i16 %18, 2048
  %.not20 = icmp eq i16 %19, 0
  br i1 %.not20, label %.critedge2, label %.lr.ph32

.lr.ph32:                                         ; preds = %.thread40
  %20 = tail call ptr @__ctype_b_loc() #24
  %21 = load ptr, ptr %20, align 8
  br label %25

22:                                               ; preds = %25
  %23 = getelementptr inbounds nuw i8, ptr %.231, i64 1
  %24 = load i8, ptr %23, align 1
  %.not21 = icmp eq i8 %24, 0
  br i1 %.not21, label %.critedge2, label %25, !llvm.loop !78

25:                                               ; preds = %.lr.ph32, %22
  %26 = phi i8 [ %.pr44, %.lr.ph32 ], [ %24, %22 ]
  %.231 = phi ptr [ %.1.ph45, %.lr.ph32 ], [ %23, %22 ]
  %27 = zext i8 %26 to i64
  %28 = getelementptr inbounds nuw i16, ptr %21, i64 %27
  %29 = load i16, ptr %28, align 2
  %30 = and i16 %29, 2048
  %.not22.not.not = icmp ne i16 %30, 0
  br i1 %.not22.not.not, label %22, label %.critedge2

.critedge2:                                       ; preds = %11, %22, %25, %1, %14, %.thread40
  %.016 = phi i1 [ false, %.thread40 ], [ true, %14 ], [ true, %1 ], [ %.not22.not.not, %25 ], [ %.not22.not.not, %22 ], [ true, %11 ]
  ret i1 %.016
}